len=168
081111 065920 34 INFO dfs.FSNamesystem: BLOCK* NameSystem.allocateBlock: /user/root/rand6/_temporary/_task_200811101024_0013_m_000197_0/part-00197. blk_1832308388558480
---
len=2516
081111 065254 19 INFO dfs.FSNamesystem: BLOCK* ask 10.250.17.177:50010 to delete  blk_-8570780307468499817 blk_-9122557405432088649 blk_-4393063808227796056 blk_8767569714374844347 blk_7079754042611867581 blk_7608961006114219538 blk_-5017273584996436939 blk_-6537833125980536955 blk_7610838808763810123 blk_3300803097775546532 blk_-5120750586032922592 blk_1577274266662884430 blk_765879159867598347 blk_-9076085976403711202 blk_-3198963348573340497 blk_-4645750029177277209 blk_-5136142986912961316 blk_5677959846373741243 blk_2107477892986152528 blk_-4235116161537008844 blk_6082535783543982566 blk_-4809870147222033236 blk_8818706925296961012 blk_-5203577173046267127 blk_189089569009261656 blk_446299976487589160 blk_-3916247521166632303 blk_-3324962406687427922 blk_-1807424528783081572 blk_-6858401049333055963 blk_6036564204960295926 blk_-8140723044408248078 blk_-3800132731140204959 blk_1716344083117307767 blk_-5194808114606613364 blk_-5473871016976323232 blk_2920934363167004552 blk_8736689095894369097 blk_-7642734632751940776 blk_3408482260833769309 blk_118013751374560901 blk_7963891081239759520 blk_3813114133944383323 blk_3042818489384932576 blk_-4570173726231458270 blk_-1564644006975920581 blk_338095650783321996 blk_3150135312641203550 blk_4285859645577726288 blk_3438772130782939627 blk_2634772258588877972 blk_-6795664812575964130 blk_3923069610304693233 blk_-1782996202120067721 blk_2004418049430157212 blk_1932147224007687756 blk_-582901062969027153 blk_5072240701440032119 blk_-7919006477393039068 blk_-7318022361288598312 blk_-6974693594143537436 blk_-5435767047126325206 blk_-5805500288959332434 blk_-7109885589081848850 blk_2161580591957523893 blk_7240227881194993860 blk_-8298405680648445349 blk_-4253026248821272215 blk_8377661448601579317 blk_8029153852899017155 blk_-8754388319080705916 blk_-7844092300527332901 blk_710178463364063355 blk_-5136849989188547884 blk_8393887138377503163 blk_-6950176077776664217 blk_-6488701068659548195 blk_2537458728254532453 blk_364441107933628577 blk_6207861897580168557 blk_8814943807366894581 blk_-4150682644311695471 blk_9174833667156726933 blk_649427218152856001 blk_-7403541028238011236 blk_-334982586592048773 blk_61908781908925992 blk_6385574357371832424 blk_-66376131060945541 blk_1372596948297458670 blk_-3389135155401857220 blk_-6035411221441929663 blk_-5127580069634421247 blk_-5685246533892022418 blk_4977937528993040451 blk_5680538862600094527 blk_-8378747462487962732 blk_425101290285860876 blk_6306622708327890839 blk_-1067866602168873257
---
len=121
081111 004657 17337 INFO dfs.DataNode$DataXceiver: 10.250.10.6:50010 Served block blk_1200136320542454615 to /10.250.10.6
---
len=105
081110 221932 19 INFO dfs.FSNamesystem: BLOCK* ask 10.251.122.79:50010 to delete  blk_8048594464172649365
---
len=172
081111 084619 26 INFO dfs.FSNamesystem: BLOCK* NameSystem.allocateBlock: /user/root/rand7/_temporary/_task_200811101024_0014_m_001736_0/part-01736. blk_-3055230140330616860
081111 084728 31 INFO dfs.FSNamesystem: BLOCK* NameSystem.allocateBlock: /user/root/rand7/_temporary/_task_200811101024_0014_m_001649_0/part-01649. blk_-5581540863377925517
081111 091200 27 INFO dfs.FSNamesystem: BLOCK* NameSystem.allocateBlock: /user/root/rand8/_temporary/_task_200811101024_0015_m_000480_0/part-00480. blk_-5613694521084380933
081111 092311 35 INFO dfs.FSNamesystem: BLOCK* NameSystem.allocateBlock: /user/root/rand8/_temporary/_task_200811101024_0015_m_000882_0/part-00882. blk_-3152434225121092058
081111 092649 28 INFO dfs.FSNamesystem: BLOCK* NameSystem.allocateBlock: /user/root/rand8/_temporary/_task_200811101024_0015_m_001033_0/part-01033. blk_-8948316319329891645
081111 092751 28 INFO dfs.FSNamesystem: BLOCK* NameSystem.allocateBlock: /user/root/rand8/_temporary/_task_200811101024_0015_m_000939_0/part-00939. blk_-3522956055443924791
081111 094713 29 INFO dfs.FSNamesystem: BLOCK* NameSystem.allocateBlock: /user/root/rand8/_temporary/_task_200811101024_0015_m_001757_0/part-01757. blk_-5343533992609553091
081111 094825 35 INFO dfs.FSNamesystem: BLOCK* NameSystem.allocateBlock: /user/root/rand8/_temporary/_task_200811101024_0015_m_001473_0/part-01473. blk_-4390972361898978900
---
len=300
081111 091733 19 INFO dfs.FSNamesystem: BLOCK* ask 10.251.126.5:50010 to delete  blk_-9016567407076718172 blk_-8695715290502978219 blk_-7168328752988473716 blk_-4355192005224403537 blk_-3757501769775889193 blk_-154600013573668394 blk_167132135416677587 blk_2654596473569751784 blk_5202581916713319258
---
len=106
081110 212510 19 INFO dfs.FSNamesystem: BLOCK* ask 10.250.18.114:50010 to delete  blk_-5140072410813878235
---
len=176
081110 143336 30 INFO dfs.FSNamesystem: BLOCK* NameSystem.allocateBlock: /user/root/sortrand2/_temporary/_task_200811101024_0003_r_000257_0/part-00257. blk_-1732662141253491971
081110 145037 35 INFO dfs.FSNamesystem: BLOCK* NameSystem.allocateBlock: /user/root/sortrand2/_temporary/_task_200811101024_0003_r_000210_0/part-00210. blk_-7667417209393167541
081110 151307 35 INFO dfs.FSNamesystem: BLOCK* NameSystem.allocateBlock: /user/root/sortrand2/_temporary/_task_200811101024_0003_r_000152_0/part-00152. blk_-7603795308074215276
081110 151427 35 INFO dfs.FSNamesystem: BLOCK* NameSystem.allocateBlock: /user/root/sortrand2/_temporary/_task_200811101024_0003_r_000344_0/part-00344. blk_-2004529166303428909
---
len=146
081111 072733 23446 INFO dfs.DataNode$DataXceiver: Receiving block blk_-7238035741206373733 src: /10.251.202.209:59561 dest: /10.251.202.209:50010
081111 073441 17869 INFO dfs.DataNode$DataXceiver: Receiving block blk_-7293871043749246063 src: /10.251.193.175:59757 dest: /10.251.193.175:50010
081111 074449 23551 INFO dfs.DataNode$DataXceiver: Receiving block blk_-3738901473077208093 src: /10.251.199.150:49679 dest: /10.251.199.150:50010
081111 081145 23823 INFO dfs.DataNode$DataXceiver: Receiving block blk_-7227576651324043655 src: /10.251.107.227:40740 dest: /10.251.107.227:50010
081111 091439 25116 INFO dfs.DataNode$DataXceiver: Receiving block blk_-4861262918414696307 src: /10.251.198.196:34168 dest: /10.251.198.196:50010
081111 093657 25789 INFO dfs.DataNode$DataXceiver: Receiving block blk_-4365612131648152536 src: /10.251.107.227:57736 dest: /10.251.107.227:50010
081111 094008 26005 INFO dfs.DataNode$DataXceiver: Receiving block blk_-7764040409370932316 src: /10.251.125.237:58496 dest: /10.251.125.237:50010
081111 095020 25962 INFO dfs.DataNode$DataXceiver: Receiving block blk_-8571819028995448536 src: /10.251.197.226:34801 dest: /10.251.197.226:50010
---
len=119
081111 085529 24695 INFO dfs.DataNode$PacketResponder: PacketResponder 1 for block blk_-5144548163293169177 terminating
081111 090034 24870 INFO dfs.DataNode$PacketResponder: PacketResponder 0 for block blk_-2268477281422551537 terminating
081111 093208 25332 INFO dfs.DataNode$PacketResponder: PacketResponder 1 for block blk_-3967261531426400230 terminating
081111 093350 25537 INFO dfs.DataNode$PacketResponder: PacketResponder 2 for block blk_-5799866343936729403 terminating
081111 094936 25537 INFO dfs.DataNode$PacketResponder: PacketResponder 1 for block blk_-1484647023667047838 terminating
081111 101206 26380 INFO dfs.DataNode$PacketResponder: PacketResponder 1 for block blk_-3228470001178394592 terminating
081111 101356 26434 INFO dfs.DataNode$PacketResponder: PacketResponder 0 for block blk_-9001895211102825241 terminating
081111 101415 26449 INFO dfs.DataNode$PacketResponder: PacketResponder 1 for block blk_-2025617675484194470 terminating
---
len=134
081111 075623 28 INFO dfs.FSNamesystem: BLOCK* NameSystem.delete: blk_-75893538967225087 is added to invalidSet of 10.250.15.198:50010
081111 075626 28 INFO dfs.FSNamesystem: BLOCK* NameSystem.delete: blk_805187982300776163 is added to invalidSet of 10.251.73.188:50010
081111 075632 28 INFO dfs.FSNamesystem: BLOCK* NameSystem.delete: blk_5702487846232575705 is added to invalidSet of 10.250.14.38:50010
081111 075634 28 INFO dfs.FSNamesystem: BLOCK* NameSystem.delete: blk_4834069779372284635 is added to invalidSet of 10.251.71.97:50010
081111 075638 28 INFO dfs.FSNamesystem: BLOCK* NameSystem.delete: blk_-566178736644429906 is added to invalidSet of 10.251.70.37:50010
081111 085859 30 INFO dfs.FSNamesystem: BLOCK* NameSystem.delete: blk_3492869167398569662 is added to invalidSet of 10.250.5.161:50010
081111 085914 27 INFO dfs.FSNamesystem: BLOCK* NameSystem.delete: blk_4738781172941319823 is added to invalidSet of 10.251.91.32:50010
081111 085922 27 INFO dfs.FSNamesystem: BLOCK* NameSystem.delete: blk_2713941272199175167 is added to invalidSet of 10.251.38.53:50010
---
len=132
081111 074431 23560 INFO dfs.DataNode$PacketResponder: Received block blk_-1090213273274684471 of size 67108864 from /10.251.214.130
081111 075636 28 INFO dfs.FSNamesystem: BLOCK* NameSystem.delete: blk_3735517274901501821 is added to invalidSet of 10.250.6.4:50010
081111 083336 24444 INFO dfs.DataNode$PacketResponder: Received block blk_-3845286823494684378 of size 67108864 from /10.251.107.196
081111 084842 24787 INFO dfs.DataNode$PacketResponder: Received block blk_-8789402864074203800 of size 67108864 from /10.251.193.224
081111 093952 25849 INFO dfs.DataNode$PacketResponder: Received block blk_-9167880724995702718 of size 67108864 from /10.251.214.225
081111 094930 26178 INFO dfs.DataNode$PacketResponder: Received block blk_-3283153974358895314 of size 67108864 from /10.251.111.228
081111 101444 26469 INFO dfs.DataNode$PacketResponder: Received block blk_-1592043549272047369 of size 67108864 from /10.251.105.189
081111 101735 26595 INFO dfs.DataNode$PacketResponder: Received block blk_-5815145248455404269 of size 67108864 from /10.251.121.224
---
len=133
081110 220651 32 INFO dfs.FSNamesystem: BLOCK* NameSystem.delete: blk_1714886759174770356 is added to invalidSet of 10.251.31.5:50010
081111 044728 18 INFO dfs.FSDataset: Deleting block blk_1379455396847512711 file /mnt/hadoop/dfs/data/current/blk_1379455396847512711
081111 044822 19 INFO dfs.FSDataset: Deleting block blk_8556592730481313831 file /mnt/hadoop/dfs/data/current/blk_8556592730481313831
081111 065205 26 INFO dfs.FSNamesystem: BLOCK* NameSystem.delete: blk_5616920288053661280 is added to invalidSet of 10.251.42.9:50010
081111 065224 26 INFO dfs.FSNamesystem: BLOCK* NameSystem.delete: blk_247452006316846355 is added to invalidSet of 10.250.6.191:50010
081111 075901 19 INFO dfs.FSDataset: Deleting block blk_2489882700357182381 file /mnt/hadoop/dfs/data/current/blk_2489882700357182381
081111 075911 19 INFO dfs.FSDataset: Deleting block blk_4513772639980123655 file /mnt/hadoop/dfs/data/current/blk_4513772639980123655
081111 075915 19 INFO dfs.FSDataset: Deleting block blk_7985460426680885040 file /mnt/hadoop/dfs/data/current/blk_7985460426680885040
---
len=136
081111 085907 27 INFO dfs.FSNamesystem: BLOCK* NameSystem.delete: blk_2060553104861908174 is added to invalidSet of 10.251.201.204:50010
081111 085912 27 INFO dfs.FSNamesystem: BLOCK* NameSystem.delete: blk_-3316519570098743145 is added to invalidSet of 10.251.70.211:50010
081111 085912 27 INFO dfs.FSNamesystem: BLOCK* NameSystem.delete: blk_-6068451475575444798 is added to invalidSet of 10.251.43.210:50010
081111 085912 27 INFO dfs.FSNamesystem: BLOCK* NameSystem.delete: blk_-7709713535298137702 is added to invalidSet of 10.251.215.50:50010
081111 085914 27 INFO dfs.FSNamesystem: BLOCK* NameSystem.delete: blk_-1030832046197982436 is added to invalidSet of 10.251.89.155:50010
081111 085916 27 INFO dfs.FSNamesystem: BLOCK* NameSystem.delete: blk_2869833078504290822 is added to invalidSet of 10.251.123.132:50010
081111 085917 27 INFO dfs.FSNamesystem: BLOCK* NameSystem.delete: blk_-1755309160709170318 is added to invalidSet of 10.251.39.209:50010
081111 085917 27 INFO dfs.FSNamesystem: BLOCK* NameSystem.delete: blk_-8312238797251504127 is added to invalidSet of 10.251.89.155:50010
---
len=169
081110 103657 32 INFO dfs.FSNamesystem: BLOCK* NameSystem.allocateBlock: /user/root/rand/_temporary/_task_200811101024_0001_m_000097_0/part-00097. blk_496376132244907301
---
len=122
081110 022226 6281 INFO dfs.DataNode$DataXceiver: 10.250.19.16:50010 Served block blk_1078000656626961731 to /10.250.19.16
081110 035357 6606 INFO dfs.DataNode$DataXceiver: 10.251.71.97:50010 Served block blk_5454332143498402824 to /10.250.15.67
081110 042826 6827 INFO dfs.DataNode$DataXceiver: 10.251.67.4:50010 Served block blk_-2901225370888235702 to /10.251.91.84
081110 070347 7574 INFO dfs.DataNode$DataXceiver: 10.250.10.6:50010 Served block blk_1598414622053793245 to /10.251.90.239
081110 080814 8123 INFO dfs.DataNode$DataXceiver: 10.251.42.84:50010 Served block blk_6105506155797750768 to /10.251.42.84
081110 092459 8650 INFO dfs.DataNode$DataXceiver: 10.250.9.207:50010 Served block blk_4355450627202483068 to /10.250.9.207
081110 092815 8872 INFO dfs.DataNode$DataXceiver: 10.250.6.191:50010 Served block blk_5952254363678329024 to /10.250.6.191
081110 175826 14005 INFO dfs.DataNode$DataXceiver: 10.251.215.50:50010 Served block blk_668295516093167045 to /10.251.30.6
---
len=135
081111 075637 28 INFO dfs.FSNamesystem: BLOCK* NameSystem.delete: blk_5018797996887008111 is added to invalidSet of 10.251.89.155:50010
081111 075814 19 INFO dfs.FSDataset: Deleting block blk_-6131345369657245178 file /mnt/hadoop/dfs/data/current/blk_-6131345369657245178
081111 075824 19 INFO dfs.FSDataset: Deleting block blk_-3575718350717794894 file /mnt/hadoop/dfs/data/current/blk_-3575718350717794894
081111 085906 27 INFO dfs.FSNamesystem: BLOCK* NameSystem.delete: blk_-3894803026385053344 is added to invalidSet of 10.251.43.21:50010
081111 085910 27 INFO dfs.FSNamesystem: BLOCK* NameSystem.delete: blk_-8863130543753323383 is added to invalidSet of 10.251.123.1:50010
081111 085916 27 INFO dfs.FSNamesystem: BLOCK* NameSystem.delete: blk_-6261136177206340449 is added to invalidSet of 10.251.70.37:50010
081111 085924 27 INFO dfs.FSNamesystem: BLOCK* NameSystem.delete: blk_-793506372912437289 is added to invalidSet of 10.250.17.225:50010
081111 085929 27 INFO dfs.FSNamesystem: BLOCK* NameSystem.delete: blk_4516306414837452219 is added to invalidSet of 10.251.127.47:50010
---
len=157
081110 020357 31 INFO dfs.FSNamesystem: BLOCK* NameSystem.addStoredBlock: blockMap updated: 10.250.6.4:50010 is added to blk_344934934043642744 size 67108864
---
len=156
081110 001350 29 INFO dfs.FSNamesystem: BLOCK* NameSystem.addStoredBlock: blockMap updated: 10.250.7.146:50010 is added to blk_278357163850888 size 67108864
---
len=158
081110 000136 28 INFO dfs.FSNamesystem: BLOCK* NameSystem.addStoredBlock: blockMap updated: 10.250.6.4:50010 is added to blk_5114010683183383297 size 67108864
081110 015719 32 INFO dfs.FSNamesystem: BLOCK* NameSystem.addStoredBlock: blockMap updated: 10.251.30.6:50010 is added to blk_446513188203036714 size 67108864
081111 050334 20441 INFO dfs.DataNode$DataXceiver: Received block blk_-4411589101766563890 src: /10.250.14.38:37362 dest: /10.250.14.38:50010 of size 67108864
---
len=145
081111 075317 23851 INFO dfs.DataNode$DataXceiver: Receiving block blk_7713504868233504097 src: /10.251.127.191:36437 dest: /10.251.127.191:50010
081111 075657 23748 INFO dfs.DataNode$DataXceiver: Receiving block blk_7996616083434301906 src: /10.251.123.195:53947 dest: /10.251.123.195:50010
081111 081606 23925 INFO dfs.DataNode$DataXceiver: Receiving block blk_7891129742741763034 src: /10.251.107.227:57000 dest: /10.251.107.227:50010
081111 083506 24609 INFO dfs.DataNode$DataXceiver: Receiving block blk_1122812501843755360 src: /10.251.198.196:51036 dest: /10.251.198.196:50010
081111 084759 24704 INFO dfs.DataNode$DataXceiver: Receiving block blk_2166777223671724319 src: /10.251.214.175:52741 dest: /10.251.214.175:50010
081111 092425 25331 INFO dfs.DataNode$DataXceiver: Receiving block blk_4820650745157199554 src: /10.251.127.243:49726 dest: /10.251.127.243:50010
081111 093701 24237 INFO dfs.DataNode$DataXceiver: Receiving block blk_3598226258881465924 src: /10.251.199.159:41752 dest: /10.251.199.159:50010
081111 100226 26261 INFO dfs.DataNode$DataXceiver: Receiving block blk_3972778210951456006 src: /10.251.121.224:56526 dest: /10.251.121.224:50010
---
len=138
081110 012426 5538 INFO dfs.DataNode$DataXceiver: Receiving block blk_7672124247291403094 src: /10.251.66.3:55531 dest: /10.251.66.3:50010
081110 080847 8088 WARN dfs.DataNode$DataXceiver: 10.251.26.8:50010:Got exception while serving blk_-8522942048313632858 to /10.251.31.85:
081110 103557 19 INFO dfs.FSDataset: Deleting block blk_-8588908000680498 file /mnt/hadoop/dfs/data/current/subdir21/blk_-8588908000680498
081110 110324 8497 INFO dfs.DataNode$DataXceiver: Receiving block blk_8752665860595246441 src: /10.251.70.5:44006 dest: /10.251.70.5:50010
081110 131950 11797 WARN dfs.DataNode$DataXceiver: 10.251.30.85:50010:Got exception while serving blk_8059204889272489644 to /10.250.7.96:
081110 210532 19 INFO dfs.FSDataset: Deleting block blk_22457656256024207 file /mnt/hadoop/dfs/data/current/subdir33/blk_22457656256024207
081110 210601 19 INFO dfs.FSDataset: Deleting block blk_70980361971054326 file /mnt/hadoop/dfs/data/current/subdir27/blk_70980361971054326
081111 090138 19 INFO dfs.FSDataset: Deleting block blk_92946806844541836 file /mnt/hadoop/dfs/data/current/subdir59/blk_92946806844541836
---
len=139
081110 175818 13937 WARN dfs.DataNode$DataXceiver: 10.250.10.223:50010:Got exception while serving blk_8478683141242372735 to /10.251.70.5:
081110 213854 15334 INFO dfs.DataNode$DataXceiver: Receiving block blk_-878226404201600469 src: /10.250.7.96:40849 dest: /10.250.7.96:50010
081111 030233 18516 INFO dfs.DataNode$DataXceiver: Receiving block blk_9076677650086747187 src: /10.251.35.1:52094 dest: /10.251.35.1:50010
081111 030946 18336 INFO dfs.DataNode$DataXceiver: Receiving block blk_92273823183917102 src: /10.250.15.67:53441 dest: /10.250.15.67:50010
081111 062238 21812 INFO dfs.DataNode$DataXceiver: Receiving block blk_6108023147232847992 src: /10.251.42.9:43819 dest: /10.251.42.9:50010
081111 070040 22706 INFO dfs.DataNode$DataXceiver: Receiving block blk_5989505185938770383 src: /10.251.67.4:53429 dest: /10.251.67.4:50010
081111 090131 19 INFO dfs.FSDataset: Deleting block blk_901963876338651405 file /mnt/hadoop/dfs/data/current/subdir1/blk_901963876338651405
081111 090818 25109 INFO dfs.DataNode$DataXceiver: Receiving block blk_6585429064641693815 src: /10.250.10.6:38158 dest: /10.250.10.6:50010
---
len=125
081110 082444 8172 INFO dfs.DataNode$DataXceiver: 10.251.109.209:50010 Served block blk_4848669047361069041 to /10.251.26.177
081110 092131 8815 INFO dfs.DataNode$DataXceiver: 10.251.30.179:50010 Served block blk_-2975629975082443857 to /10.251.30.179
081110 131128 11976 INFO dfs.DataNode$DataXceiver: 10.251.67.225:50010 Served block blk_2038610753592374847 to /10.250.18.114
081110 135803 12201 INFO dfs.DataNode$DataXceiver: 10.251.214.18:50010 Served block blk_7297060562345904886 to /10.251.29.239
081110 163007 13812 INFO dfs.DataNode$DataXceiver: 10.251.67.225:50010 Served block blk_5240632065631390212 to /10.251.67.225
081110 200311 14622 INFO dfs.DataNode$DataXceiver: 10.250.11.194:50010 Served block blk_8591104451552720112 to /10.250.11.194
081110 231556 16543 INFO dfs.DataNode$DataXceiver: 10.251.202.181:50010 Served block blk_-5236655516146555545 to /10.251.31.5
081111 013241 17501 INFO dfs.DataNode$DataXceiver: 10.251.31.180:50010 Served block blk_3905759687686730625 to /10.251.31.180
---
len=173
081110 010543 35 INFO dfs.FSNamesystem: BLOCK* NameSystem.allocateBlock: /user/root/randtxt/_temporary/_task_200811092030_0003_m_000382_0/part-00382. blk_8935202950442998446
081110 014207 27 INFO dfs.FSNamesystem: BLOCK* NameSystem.allocateBlock: /user/root/randtxt/_temporary/_task_200811092030_0003_m_001365_0/part-01365. blk_4841101867353115844
081110 014519 32 INFO dfs.FSNamesystem: BLOCK* NameSystem.allocateBlock: /user/root/randtxt/_temporary/_task_200811092030_0003_m_001506_0/part-01506. blk_1104376461837247304
081110 014727 29 INFO dfs.FSNamesystem: BLOCK* NameSystem.allocateBlock: /user/root/randtxt/_temporary/_task_200811092030_0003_m_001597_0/part-01597. blk_-591552904934794824
081110 014914 30 INFO dfs.FSNamesystem: BLOCK* NameSystem.allocateBlock: /user/root/randtxt/_temporary/_task_200811092030_0003_m_001728_0/part-01728. blk_-488298625688742454
081110 015600 28 INFO dfs.FSNamesystem: BLOCK* NameSystem.allocateBlock: /user/root/randtxt/_temporary/_task_200811092030_0003_m_001817_0/part-01817. blk_3291173852929756766
081110 015759 29 INFO dfs.FSNamesystem: BLOCK* NameSystem.allocateBlock: /user/root/randtxt/_temporary/_task_200811092030_0003_m_001840_0/part-01840. blk_4210124392039605712
081110 220711 30 INFO dfs.FSNamesystem: BLOCK* NameSystem.allocateBlock: /user/root/randtxt3/_temporary/_task_200811101024_0007_m_000190_0/part-00190. blk_641646158310569454
---
len=126
081110 163625 13543 INFO dfs.DataNode$DataXceiver: 10.251.106.50:50010 Served block blk_-8907436477337775860 to /10.251.106.50
081110 210210 14441 INFO dfs.DataNode$DataXceiver: 10.250.15.101:50010 Served block blk_-2557432794238860908 to /10.251.74.134
081110 233940 17094 INFO dfs.DataNode$DataXceiver: 10.250.17.225:50010 Served block blk_-2656323385657954732 to /10.250.17.225
081110 235445 16879 INFO dfs.DataNode$DataXceiver: 10.251.127.243:50010 Served block blk_8711213005689112399 to /10.251.74.134
081111 000037 17163 INFO dfs.DataNode$DataXceiver: 10.251.195.70:50010 Served block blk_-3696162841836791939 to /10.251.195.70
081111 002741 17343 INFO dfs.DataNode$DataXceiver: 10.250.10.213:50010 Served block blk_-1125621902344947014 to /10.250.10.213
081111 013322 17524 INFO dfs.DataNode$DataXceiver: 10.251.121.224:50010 Served block blk_342378162324355732 to /10.251.121.224
081111 022143 17663 INFO dfs.DataNode$DataXceiver: 10.250.13.240:50010 Served block blk_-3134225108208373949 to /10.250.13.240
---
len=94
081110 011237 13 INFO dfs.DataBlockScanner: Verification succeeded for blk_6996194389878584395
081110 083453 13 INFO dfs.DataBlockScanner: Verification succeeded for blk_3141363517520802396
081110 093643 13 INFO dfs.DataBlockScanner: Verification succeeded for blk_9188832735514090334
081110 121758 13 INFO dfs.DataBlockScanner: Verification succeeded for blk_1649162819905816843
081110 173657 13 INFO dfs.DataBlockScanner: Verification succeeded for blk_2904134648927436267
081110 183200 13 INFO dfs.DataBlockScanner: Verification succeeded for blk_1584196996810164915
081110 190333 13 INFO dfs.DataBlockScanner: Verification succeeded for blk_1150231966878829887
081110 230105 13 INFO dfs.DataBlockScanner: Verification succeeded for blk_3894335463008345041
---
len=141
081111 090150 19 INFO dfs.FSDataset: Deleting block blk_2403370969415186087 file /mnt/hadoop/dfs/data/current/subdir6/blk_2403370969415186087
081111 091555 25051 INFO dfs.DataNode$DataXceiver: Receiving block blk_2583600095045026513 src: /10.250.15.67:59629 dest: /10.250.15.67:50010
081111 094921 25993 INFO dfs.DataNode$DataXceiver: Receiving block blk_5565611615515783341 src: /10.251.126.5:35656 dest: /10.251.126.5:50010
081111 100752 26527 INFO dfs.DataNode$DataXceiver: Receiving block blk_-178934379749864379 src: /10.251.71.97:55517 dest: /10.251.71.97:50010
081111 100824 26391 INFO dfs.DataNode$DataXceiver: Receiving block blk_8303284829424905326 src: /10.251.70.37:47359 dest: /10.251.70.37:50010
081111 101455 26895 INFO dfs.DataNode$DataXceiver: Receiving block blk_2583125615128303019 src: /10.251.71.97:54431 dest: /10.251.71.97:50010
081111 101804 26494 INFO dfs.DataNode$DataXceiver: Receiving block blk_-295306975763175640 src: /10.250.9.207:53270 dest: /10.250.9.207:50010
081111 102017 26347 INFO dfs.DataNode$DataXceiver: Receiving block blk_4343207286455274569 src: /10.250.9.207:59759 dest: /10.250.9.207:50010
---
len=123
081110 040800 6739 INFO dfs.DataNode$DataXceiver: 10.250.6.214:50010 Served block blk_-3384560576963801177 to /10.250.6.214
081110 080555 8227 INFO dfs.DataNode$DataXceiver: 10.250.11.194:50010 Served block blk_3087787567144441647 to /10.251.91.84
081110 080724 8080 INFO dfs.DataNode$DataXceiver: 10.251.74.79:50010 Served block blk_-3457731723401426942 to /10.251.74.79
081110 083328 8416 INFO dfs.DataNode$DataXceiver: 10.251.126.22:50010 Served block blk_805587860540600864 to /10.251.126.22
081110 091800 8380 INFO dfs.DataNode$DataXceiver: 10.250.14.224:50010 Served block blk_666713934549639791 to /10.250.14.224
081110 094657 7835 INFO dfs.DataNode$DataXceiver: 10.251.107.50:50010 Served block blk_-2285729896739318683 to /10.251.70.5
081110 124158 11529 INFO dfs.DataNode$DataXceiver: 10.250.11.53:50010 Served block blk_-743349875664670637 to /10.250.11.53
081111 023222 17683 INFO dfs.DataNode$DataXceiver: 10.250.14.143:50010 Served block blk_-664656559337730574 to /10.250.7.96
---
len=170
081109 212245 27 INFO dfs.FSNamesystem: BLOCK* NameSystem.allocateBlock: /user/root/rand/_temporary/_task_200811092030_0001_m_001648_0/part-01648. blk_2513940824125131775
081110 103850 32 INFO dfs.FSNamesystem: BLOCK* NameSystem.allocateBlock: /user/root/rand/_temporary/_task_200811101024_0001_m_000056_0/part-00056. blk_6140788650991100539
081110 111043 30 INFO dfs.FSNamesystem: BLOCK* NameSystem.allocateBlock: /user/root/rand/_temporary/_task_200811101024_0001_m_001353_0/part-01353. blk_5782729236964719738
081110 111547 33 INFO dfs.FSNamesystem: BLOCK* NameSystem.allocateBlock: /user/root/rand/_temporary/_task_200811101024_0001_m_001587_0/part-01587. blk_6374836031306809839
081111 024443 29 INFO dfs.FSNamesystem: BLOCK* NameSystem.allocateBlock: /user/root/rand4/_temporary/_task_200811101024_0009_m_000115_0/part-00115. blk_-17685631368401548
081111 032053 27 INFO dfs.FSNamesystem: BLOCK* NameSystem.allocateBlock: /user/root/rand4/_temporary/_task_200811101024_0009_m_001611_0/part-01611. blk_285336326661214154
081111 070519 35 INFO dfs.FSNamesystem: BLOCK* NameSystem.allocateBlock: /user/root/rand6/_temporary/_task_200811101024_0013_m_000077_0/part-00077. blk_608957629753483727
---
len=131
081111 082730 24531 INFO dfs.DataNode$PacketResponder: Received block blk_-3023983271692989109 of size 67108864 from /10.251.110.68
081111 082952 24363 INFO dfs.DataNode$PacketResponder: Received block blk_5813923864071791162 of size 67108864 from /10.251.125.193
081111 083143 24261 INFO dfs.DataNode$PacketResponder: Received block blk_-5970165518655489569 of size 67108864 from /10.250.14.196
081111 084818 25055 INFO dfs.DataNode$PacketResponder: Received block blk_4031738712701565209 of size 67108864 from /10.251.199.150
081111 091002 25162 INFO dfs.DataNode$PacketResponder: Received block blk_6000837850922531821 of size 67108864 from /10.251.197.226
081111 093814 25929 INFO dfs.DataNode$PacketResponder: Received block blk_-2934265883100282310 of size 67108864 from /10.251.39.144
081111 094319 25340 INFO dfs.DataNode$PacketResponder: Received block blk_-5785220384376578831 of size 67108864 from /10.251.203.80
081111 095813 26362 INFO dfs.DataNode$PacketResponder: Received block blk_-3702595599317472079 of size 67108864 from /10.251.25.237
---
len=159
081111 042427 30 INFO dfs.FSNamesystem: BLOCK* NameSystem.addStoredBlock: blockMap updated: 10.251.31.5:50010 is added to blk_5813361416484537967 size 67108864
081111 055219 33 INFO dfs.FSNamesystem: BLOCK* NameSystem.addStoredBlock: blockMap updated: 10.251.67.4:50010 is added to blk_9093176996492793041 size 67108864
081111 073350 31 INFO dfs.FSNamesystem: BLOCK* NameSystem.addStoredBlock: blockMap updated: 10.250.7.96:50010 is added to blk_4641147544753118391 size 67108864
081111 081027 28 INFO dfs.FSNamesystem: BLOCK* NameSystem.addStoredBlock: blockMap updated: 10.251.30.6:50010 is added to blk_1119272693889755844 size 67108864
081111 081055 24136 INFO dfs.DataNode$DataXceiver: Received block blk_1473949624670719319 src: /10.251.29.239:35617 dest: /10.251.29.239:50010 of size 67108864
081111 084757 31 INFO dfs.FSNamesystem: BLOCK* NameSystem.addStoredBlock: blockMap updated: 10.251.91.32:50010 is added to blk_423916008836295480 size 67108864
081111 095632 31 INFO dfs.FSNamesystem: BLOCK* NameSystem.addStoredBlock: blockMap updated: 10.250.6.4:50010 is added to blk_-6945615463687647586 size 67108864
081111 095702 30 INFO dfs.FSNamesystem: BLOCK* NameSystem.addStoredBlock: blockMap updated: 10.250.10.6:50010 is added to blk_8527562124953828227 size 67108864
---
len=144
081111 090149 19 INFO dfs.FSDataset: Deleting block blk_-1451819169209310732 file /mnt/hadoop/dfs/data/current/subdir23/blk_-1451819169209310732
081111 090246 19 INFO dfs.FSDataset: Deleting block blk_-4941547144875557718 file /mnt/hadoop/dfs/data/current/subdir61/blk_-4941547144875557718
081111 091244 19683 INFO dfs.DataNode$DataXceiver: Receiving block blk_-4967783186426171722 src: /10.251.39.192:57105 dest: /10.251.39.192:50010
081111 093429 25813 INFO dfs.DataNode$DataXceiver: Receiving block blk_-6135061626100136978 src: /10.251.31.180:48900 dest: /10.251.31.180:50010
081111 095653 25890 INFO dfs.DataNode$DataXceiver: Receiving block blk_-3265479347842446682 src: /10.250.14.224:47278 dest: /10.250.14.224:50010
081111 100210 19 INFO dfs.FSDataset: Deleting block blk_-1082541280306680938 file /mnt/hadoop/dfs/data/current/subdir38/blk_-1082541280306680938
081111 100646 26268 INFO dfs.DataNode$DataXceiver: Receiving block blk_-7048088870427586736 src: /10.250.10.100:56512 dest: /10.250.10.100:50010
081111 101238 26399 INFO dfs.DataNode$DataXceiver: Receiving block blk_-5224756755359850354 src: /10.251.43.192:38028 dest: /10.251.43.192:50010
---
len=118
081111 094221 25770 INFO dfs.DataNode$PacketResponder: PacketResponder 2 for block blk_2833019093942278701 terminating
081111 095636 26319 INFO dfs.DataNode$PacketResponder: PacketResponder 1 for block blk_1216611589160220108 terminating
081111 100223 26181 INFO dfs.DataNode$PacketResponder: PacketResponder 1 for block blk_-191333338640084691 terminating
081111 100245 26152 INFO dfs.DataNode$PacketResponder: PacketResponder 0 for block blk_1408672604432845193 terminating
081111 100820 26329 INFO dfs.DataNode$PacketResponder: PacketResponder 0 for block blk_2026200052147887341 terminating
081111 101117 26526 INFO dfs.DataNode$PacketResponder: PacketResponder 2 for block blk_8418106412701718933 terminating
081111 101131 26402 INFO dfs.DataNode$PacketResponder: PacketResponder 1 for block blk_-800664075087524591 terminating
081111 101954 26414 INFO dfs.DataNode$PacketResponder: PacketResponder 0 for block blk_5225719677049010638 terminating
---
len=142
081111 090159 19 INFO dfs.FSDataset: Deleting block blk_4007982883396598426 file /mnt/hadoop/dfs/data/current/subdir13/blk_4007982883396598426
081111 090208 19 INFO dfs.FSDataset: Deleting block blk_6051144263842600010 file /mnt/hadoop/dfs/data/current/subdir42/blk_6051144263842600010
081111 090223 19 INFO dfs.FSDataset: Deleting block blk_8436095180790908547 file /mnt/hadoop/dfs/data/current/subdir43/blk_8436095180790908547
081111 090229 18 INFO dfs.FSDataset: Deleting block blk_5100975846124291571 file /mnt/hadoop/dfs/data/current/subdir38/blk_5100975846124291571
081111 092023 25367 INFO dfs.DataNode$DataXceiver: Receiving block blk_465845235850106928 src: /10.251.70.112:39499 dest: /10.251.70.112:50010
081111 092617 19 INFO dfs.FSDataset: Deleting block blk_9173199815015538212 file /mnt/hadoop/dfs/data/current/subdir24/blk_9173199815015538212
081111 093513 25793 INFO dfs.DataNode$DataXceiver: Receiving block blk_-5057534532247887258 src: /10.250.5.237:45766 dest: /10.250.5.237:50010
081111 094052 25242 INFO dfs.DataNode$DataXceiver: Receiving block blk_931297048899943584 src: /10.251.67.113:54324 dest: /10.251.67.113:50010
---
len=2520
081111 065303 19 INFO dfs.FSNamesystem: BLOCK* ask 10.250.10.213:50010 to delete  blk_4029139044660806713 blk_-5471189807977280544 blk_6708643067868168687 blk_-500678958150296008 blk_-8597840983621849778 blk_-3610057702150392748 blk_-1709606535283888232 blk_-4154362211643572668 blk_-8892080524136798472 blk_5356427838869009345 blk_-6987238639050161133 blk_-5215128860160823363 blk_7186692462976470823 blk_-6538449588297475521 blk_-2165930080589343952 blk_-5524899010031625427 blk_6384439316405471171 blk_-2965258329365213675 blk_118950937507976810 blk_-1717088081766373300 blk_-3911466865418055820 blk_1237334407720045724 blk_-760015977981369567 blk_-6802007379650646616 blk_-7667535133893574689 blk_6865645438678864855 blk_4633996820313194570 blk_7225301266481603731 blk_-4930257130609958866 blk_-4124845864570823487 blk_4927011145115127531 blk_7234346856930822716 blk_7159969052744592746 blk_1296823600557793869 blk_2209319141644287774 blk_-622218131799806364 blk_-8154516246083521409 blk_4466433199471909449 blk_8406894133999850666 blk_991075908349619367 blk_-2081474832657208733 blk_-5573393775847919985 blk_2004177185950968695 blk_4041319486058127641 blk_6449230045010995668 blk_5978265573904271474 blk_-4813738732036414715 blk_4389340532803855247 blk_-857151863616763327 blk_-7200136644339435027 blk_-1454962873426270839 blk_-5012294311590635938 blk_7112727670634942639 blk_3335012758760643328 blk_3382627815322561484 blk_825124020036421636 blk_-8040559034239258688 blk_-5415591001139074826 blk_-1052513063506891954 blk_-1155882018729560343 blk_-5679835604685169040 blk_-4498808851217768984 blk_8345415947062862337 blk_8521655806854586696 blk_7602939593939794410 blk_-4833650023923869528 blk_7237730029042141635 blk_2860897425785746911 blk_-1937193099911148343 blk_5740615689780260922 blk_963252337613423037 blk_5537011318013544619 blk_2626057344048606017 blk_8296499240199635880 blk_7211071078501521087 blk_8823112510768971040 blk_-3366974935992288326 blk_-2947778702643296262 blk_7693891282153136044 blk_4644812717442758529 blk_-5724970555730638200 blk_-3039294462945223064 blk_-1729755380346651221 blk_-6448673813272428418 blk_-7724282460846954976 blk_2698691234887375588 blk_-4043525878322523713 blk_-5195120009388265 blk_8879208244602324204 blk_-5784376901556131897 blk_-5201149273969117873 blk_5253889604362640423 blk_7067050654303940677 blk_8992626816092659826 blk_-488462739843441981 blk_8543991617360374935 blk_1943146154560599630 blk_-9194660123773136535 blk_3351984198891394382 blk_-6759123807563555545
---
len=95
081110 085042 13 INFO dfs.DataBlockScanner: Verification succeeded for blk_-1383276859207001328
081110 085933 13 INFO dfs.DataBlockScanner: Verification succeeded for blk_-4117999745005013424
081110 135645 13 INFO dfs.DataBlockScanner: Verification succeeded for blk_-4984504651603069357
081110 150254 13 INFO dfs.DataBlockScanner: Verification succeeded for blk_-7803343374223161433
081110 153301 13 INFO dfs.DataBlockScanner: Verification succeeded for blk_-8507209254958698084
081111 044337 13 INFO dfs.DataBlockScanner: Verification succeeded for blk_-6160667975382232149
081111 070232 13 INFO dfs.DataBlockScanner: Verification succeeded for blk_-8050165297538775793
081111 093742 13 INFO dfs.DataBlockScanner: Verification succeeded for blk_-8347949825960763812
---
len=175
081110 121943 29 INFO dfs.FSNamesystem: BLOCK* NameSystem.allocateBlock: /user/root/randtxt2/_temporary/_task_200811101024_0002_m_001335_0/part-01335. blk_-2541428592126088938
081110 150205 29 INFO dfs.FSNamesystem: BLOCK* NameSystem.allocateBlock: /user/root/sortrand2/_temporary/_task_200811101024_0003_r_000116_0/part-00116. blk_6749232449432458524
081110 150531 26 INFO dfs.FSNamesystem: BLOCK* NameSystem.allocateBlock: /user/root/sortrand2/_temporary/_task_200811101024_0003_r_000315_0/part-00315. blk_-463998587096565542
081110 220830 29 INFO dfs.FSNamesystem: BLOCK* NameSystem.allocateBlock: /user/root/randtxt3/_temporary/_task_200811101024_0007_m_000374_0/part-00374. blk_-1941312615450572331
081110 221212 28 INFO dfs.FSNamesystem: BLOCK* NameSystem.allocateBlock: /user/root/randtxt3/_temporary/_task_200811101024_0007_m_000186_0/part-00186. blk_-6754647973871368247
081111 040107 30 INFO dfs.FSNamesystem: BLOCK* NameSystem.allocateBlock: /user/root/randtxt4/_temporary/_task_200811101024_0010_m_000881_0/part-00881. blk_-3091906986951252347
081111 043132 32 INFO dfs.FSNamesystem: BLOCK* NameSystem.allocateBlock: /user/root/randtxt4/_temporary/_task_200811101024_0010_m_001716_0/part-01716. blk_-2051219911597308805
081111 101225 34 INFO dfs.FSNamesystem: BLOCK* NameSystem.allocateBlock: /user/root/randtxt9/_temporary/_task_200811101024_0016_m_000347_0/part-00347. blk_-8426741581316629266
---
len=128
081110 122407 11042 INFO dfs.DataNode$PacketResponder: Received block blk_692184983396207285 of size 67108864 from /10.250.6.214
081110 175426 13827 INFO dfs.DataNode$DataXceiver: 10.251.202.209:50010 Served block blk_-5086369325828333421 to /10.251.194.213
081110 194544 14270 INFO dfs.DataNode$DataXceiver: 10.251.202.209:50010 Served block blk_-1442905060580014339 to /10.251.202.209
081111 024105 17911 INFO dfs.DataNode$PacketResponder: Received block blk_-6811519872198278365 of size 67108864 from /10.250.6.4
081111 034742 19142 INFO dfs.DataNode$PacketResponder: Received block blk_752365829198406123 of size 67108864 from /10.250.6.214
081111 051130 20759 INFO dfs.DataNode$PacketResponder: Received block blk_49420377461855719 of size 67108864 from /10.251.70.112
081111 054310 21173 INFO dfs.DataNode$PacketResponder: Received block blk_6685663454079607598 of size 10157271 from /10.251.66.3
081111 065936 22801 INFO dfs.DataNode$PacketResponder: Received block blk_2247786307216183697 of size 67108864 from /10.251.67.4
---
len=130
081111 093550 25550 INFO dfs.DataNode$PacketResponder: Received block blk_9103049989653819836 of size 67108864 from /10.250.10.223
081111 094331 26028 INFO dfs.DataNode$PacketResponder: Received block blk_3386670145292909259 of size 67108864 from /10.251.110.68
081111 094832 26039 INFO dfs.DataNode$PacketResponder: Received block blk_1190791818440776717 of size 67108864 from /10.251.43.147
081111 094918 25951 INFO dfs.DataNode$PacketResponder: Received block blk_-7202857144668308473 of size 67108864 from /10.251.43.21
081111 095434 26090 INFO dfs.DataNode$PacketResponder: Received block blk_7294821275446427348 of size 67108864 from /10.251.43.210
081111 095840 26225 INFO dfs.DataNode$PacketResponder: Received block blk_6446927133528675675 of size 67108864 from /10.251.39.209
081111 100729 26320 INFO dfs.DataNode$PacketResponder: Received block blk_7589872946955471867 of size 67108864 from /10.251.195.70
081111 101243 26312 INFO dfs.DataNode$PacketResponder: Received block blk_-1440254020029439248 of size 67108864 from /10.251.30.85
---
len=124
081110 130558 11608 INFO dfs.DataNode$DataXceiver: 10.251.39.192:50010 Served block blk_6338761369201338121 to /10.251.90.81
081110 133337 11768 INFO dfs.DataNode$DataXceiver: 10.250.10.100:50010 Served block blk_9216955386716663841 to /10.251.90.64
081110 193551 14191 INFO dfs.DataNode$DataXceiver: 10.251.71.97:50010 Served block blk_6552418180158772377 to /10.251.39.242
081110 195500 14389 INFO dfs.DataNode$DataXceiver: 10.251.39.179:50010 Served block blk_798664047382151445 to /10.251.39.179
081111 000626 17362 INFO dfs.DataNode$DataXceiver: 10.251.91.84:50010 Served block blk_-8915491531889006304 to /10.251.91.84
081111 000932 16928 INFO dfs.DataNode$DataXceiver: 10.251.90.64:50010 Served block blk_-657087263710195616 to /10.250.14.196
081111 013400 17543 INFO dfs.DataNode$DataXceiver: 10.250.14.38:50010 Served block blk_-8674089929114017279 to /10.250.14.38
081111 023914 17773 INFO dfs.DataNode$DataXceiver: 10.251.122.65:50010 Served block blk_2866275036574950116 to /10.250.11.53
---
len=171
081111 083219 35 INFO dfs.FSNamesystem: BLOCK* NameSystem.allocateBlock: /user/root/rand7/_temporary/_task_200811101024_0014_m_001348_0/part-01348. blk_4531288786306744275
081111 084831 26 INFO dfs.FSNamesystem: BLOCK* NameSystem.allocateBlock: /user/root/rand7/_temporary/_task_200811101024_0014_m_001940_0/part-01940. blk_1910319264393500537
081111 085059 31 INFO dfs.FSNamesystem: BLOCK* NameSystem.allocateBlock: /user/root/rand7/_temporary/_task_200811101024_0014_m_001642_0/part-01642. blk_8215843708467112607
081111 085634 30 INFO dfs.FSNamesystem: BLOCK* NameSystem.allocateBlock: /user/root/rand7/_temporary/_task_200811101024_0014_m_002007_0/part-02007. blk_7908524857056299716
081111 091351 32 INFO dfs.FSNamesystem: BLOCK* NameSystem.allocateBlock: /user/root/rand8/_temporary/_task_200811101024_0015_m_000737_0/part-00737. blk_5894088883762961800
081111 093407 35 INFO dfs.FSNamesystem: BLOCK* NameSystem.allocateBlock: /user/root/rand8/_temporary/_task_200811101024_0015_m_001294_0/part-01294. blk_4214952053910973364
081111 094439 32 INFO dfs.FSNamesystem: BLOCK* NameSystem.allocateBlock: /user/root/rand8/_temporary/_task_200811101024_0015_m_001425_0/part-01425. blk_2630223487595425525
081111 095039 35 INFO dfs.FSNamesystem: BLOCK* NameSystem.allocateBlock: /user/root/rand8/_temporary/_task_200811101024_0015_m_001860_0/part-01860. blk_8716294289715825928
---
len=143
081111 075907 19 INFO dfs.FSDataset: Deleting block blk_-1278725622357466169 file /mnt/hadoop/dfs/data/current/subdir0/blk_-1278725622357466169
081111 081406 18 INFO dfs.FSDataset: Deleting block blk_-7606467001548719462 file /mnt/hadoop/dfs/data/current/subdir2/blk_-7606467001548719462
081111 083742 24575 INFO dfs.DataNode$DataXceiver: Receiving block blk_5983149244832683042 src: /10.251.42.191:52748 dest: /10.251.42.191:50010
081111 083755 24394 INFO dfs.DataNode$DataXceiver: Receiving block blk_5781019224640206392 src: /10.250.11.194:37060 dest: /10.250.11.194:50010
081111 090126 19 INFO dfs.FSDataset: Deleting block blk_-2518425063392446785 file /mnt/hadoop/dfs/data/current/subdir6/blk_-2518425063392446785
081111 091742 19 INFO dfs.FSDataset: Deleting block blk_-2808875502459981198 file /mnt/hadoop/dfs/data/current/subdir3/blk_-2808875502459981198
081111 094415 25901 INFO dfs.DataNode$DataXceiver: Receiving block blk_1859772752119590543 src: /10.251.42.246:57741 dest: /10.251.42.246:50010
081111 101621 24902 INFO dfs.DataNode$DataXceiver: Receiving block blk_4198733391373026104 src: /10.251.106.10:46843 dest: /10.251.106.10:50010
---
len=129
081111 071713 23240 INFO dfs.DataNode$PacketResponder: Received block blk_-1236077201457689973 of size 67108864 from /10.251.35.1
081111 081029 24268 INFO dfs.DataNode$PacketResponder: Received block blk_1600228140214754078 of size 67108864 from /10.251.90.81
081111 083955 24547 INFO dfs.DataNode$PacketResponder: Received block blk_4539833452749813987 of size 67108864 from /10.251.42.16
081111 085221 24607 INFO dfs.DataNode$PacketResponder: Received block blk_241585185788373386 of size 67108864 from /10.251.111.80
081111 091647 25353 INFO dfs.DataNode$PacketResponder: Received block blk_7872746846750105239 of size 67108864 from /10.251.43.21
081111 094633 25926 INFO dfs.DataNode$PacketResponder: Received block blk_-5385105076403314787 of size 67108864 from /10.251.42.9
081111 100323 14118 INFO dfs.DataNode$PacketResponder: Received block blk_7679838117000095334 of size 67108864 from /10.251.30.85
081111 101153 26436 INFO dfs.DataNode$PacketResponder: Received block blk_6516880861186877710 of size 67108864 from /10.251.42.84
---
len=161
081111 085432 34 INFO dfs.FSNamesystem: BLOCK* NameSystem.addStoredBlock: blockMap updated: 10.251.197.226:50010 is added to blk_-23492739449820023 size 67108864
081111 093026 34 INFO dfs.FSNamesystem: BLOCK* NameSystem.addStoredBlock: blockMap updated: 10.251.29.239:50010 is added to blk_-409558225151784282 size 67108864
081111 095726 32 INFO dfs.FSNamesystem: BLOCK* NameSystem.addStoredBlock: blockMap updated: 10.251.30.134:50010 is added to blk_2749066163012162435 size 67108864
081111 095957 26 INFO dfs.FSNamesystem: BLOCK* NameSystem.addStoredBlock: blockMap updated: 10.251.75.49:50010 is added to blk_-2959268996938658555 size 15715490
081111 100350 32 INFO dfs.FSNamesystem: BLOCK* NameSystem.addStoredBlock: blockMap updated: 10.250.13.240:50010 is added to blk_2593937801738981947 size 67108864
081111 100414 35 INFO dfs.FSNamesystem: BLOCK* NameSystem.addStoredBlock: blockMap updated: 10.251.71.193:50010 is added to blk_5489815612272797790 size 67108864
081111 100417 30 INFO dfs.FSNamesystem: BLOCK* NameSystem.addStoredBlock: blockMap updated: 10.251.30.101:50010 is added to blk_6451403582950672007 size 67108864
081111 101230 34 INFO dfs.FSNamesystem: BLOCK* NameSystem.addStoredBlock: blockMap updated: 10.251.29.239:50010 is added to blk_-762982068597249045 size 67108864
---
len=114
081109 203615 148 INFO dfs.DataNode$PacketResponder: PacketResponder 1 for block blk_38865049064139660 terminating
---
len=160
081111 072300 32 INFO dfs.FSNamesystem: BLOCK* NameSystem.addStoredBlock: blockMap updated: 10.250.17.177:50010 is added to blk_4385764838827095986 size 3541872
081111 072356 30 INFO dfs.FSNamesystem: BLOCK* NameSystem.addStoredBlock: blockMap updated: 10.251.126.22:50010 is added to blk_707166530951154301 size 67108864
081111 072948 35 INFO dfs.FSNamesystem: BLOCK* NameSystem.addStoredBlock: blockMap updated: 10.250.7.230:50010 is added to blk_8663640697928077697 size 67108864
081111 082039 28 INFO dfs.FSNamesystem: BLOCK* NameSystem.addStoredBlock: blockMap updated: 10.251.66.3:50010 is added to blk_-4970213618915792510 size 67108864
081111 092436 29 INFO dfs.FSNamesystem: BLOCK* NameSystem.addStoredBlock: blockMap updated: 10.250.6.223:50010 is added to blk_-6390296685077811803 size 3546314
081111 094939 29 INFO dfs.FSNamesystem: BLOCK* NameSystem.addStoredBlock: blockMap updated: 10.250.6.223:50010 is added to blk_7474737521119026445 size 67108864
081111 095618 33 INFO dfs.FSNamesystem: BLOCK* NameSystem.addStoredBlock: blockMap updated: 10.251.126.5:50010 is added to blk_4361294871479973840 size 67108864
081111 101316 29 INFO dfs.FSNamesystem: BLOCK* NameSystem.addStoredBlock: blockMap updated: 10.251.90.64:50010 is added to blk_1441315972355360459 size 67108864
---
len=137
081111 044347 29 INFO dfs.FSNamesystem: BLOCK* NameSystem.delete: blk_-5802915611610989626 is added to invalidSet of 10.251.110.196:50010
081111 065217 26 INFO dfs.FSNamesystem: BLOCK* NameSystem.delete: blk_-1641081065757890722 is added to invalidSet of 10.251.107.242:50010
081111 065226 26 INFO dfs.FSNamesystem: BLOCK* NameSystem.delete: blk_-2451769929123196359 is added to invalidSet of 10.251.199.159:50010
081111 085906 27 INFO dfs.FSNamesystem: BLOCK* NameSystem.delete: blk_-7873581794069372986 is added to invalidSet of 10.251.194.147:50010
081111 085909 27 INFO dfs.FSNamesystem: BLOCK* NameSystem.delete: blk_-6783506473540833076 is added to invalidSet of 10.251.202.209:50010
081111 085911 27 INFO dfs.FSNamesystem: BLOCK* NameSystem.delete: blk_-8769398708439834546 is added to invalidSet of 10.251.127.243:50010
081111 085922 27 INFO dfs.FSNamesystem: BLOCK* NameSystem.delete: blk_-7846283874350947646 is added to invalidSet of 10.251.199.150:50010
081111 085926 27 INFO dfs.FSNamesystem: BLOCK* NameSystem.delete: blk_-5293091556505218722 is added to invalidSet of 10.251.125.237:50010
---
len=162
081111 091728 33 INFO dfs.FSNamesystem: BLOCK* NameSystem.addStoredBlock: blockMap updated: 10.251.39.160:50010 is added to blk_-3510473878877779134 size 67108864
081111 092720 27 INFO dfs.FSNamesystem: BLOCK* NameSystem.addStoredBlock: blockMap updated: 10.251.42.207:50010 is added to blk_-6314365697827006048 size 67108864
081111 095035 28 INFO dfs.FSNamesystem: BLOCK* NameSystem.addStoredBlock: blockMap updated: 10.251.214.67:50010 is added to blk_-8428590803682810851 size 67108864
081111 095238 28 INFO dfs.FSNamesystem: BLOCK* NameSystem.addStoredBlock: blockMap updated: 10.251.123.132:50010 is added to blk_8527475857502481768 size 67108864
081111 095535 28 INFO dfs.FSNamesystem: BLOCK* NameSystem.addStoredBlock: blockMap updated: 10.251.127.243:50010 is added to blk_1793140687921032046 size 67108864
081111 095844 30 INFO dfs.FSNamesystem: BLOCK* NameSystem.addStoredBlock: blockMap updated: 10.251.215.192:50010 is added to blk_2015610615789582788 size 67108864
081111 100903 33 INFO dfs.FSNamesystem: BLOCK* NameSystem.addStoredBlock: blockMap updated: 10.251.111.130:50010 is added to blk_5646792755154529338 size 67108864
081111 101120 31 INFO dfs.FSNamesystem: BLOCK* NameSystem.addStoredBlock: blockMap updated: 10.251.67.225:50010 is added to blk_-6325232815283133921 size 67108864
---
len=115
081109 204525 512 INFO dfs.DataNode$PacketResponder: PacketResponder 2 for block blk_572492839287299681 terminating
081111 064011 22583 INFO dfs.DataNode$PacketResponder: PacketResponder 2 for block blk_1077394056781488 terminating
---
len=174
081111 061730 32 INFO dfs.FSNamesystem: BLOCK* NameSystem.allocateBlock: /user/root/randtxt5/_temporary/_task_200811101024_0012_m_000900_0/part-00900. blk_6690143611140381289
081111 062628 35 INFO dfs.FSNamesystem: BLOCK* NameSystem.allocateBlock: /user/root/randtxt5/_temporary/_task_200811101024_0012_m_001314_0/part-01314. blk_5872617224009342667
081111 063138 27 INFO dfs.FSNamesystem: BLOCK* NameSystem.allocateBlock: /user/root/randtxt5/_temporary/_task_200811101024_0012_m_001529_0/part-01529. blk_-826920518336899809
081111 063413 26 INFO dfs.FSNamesystem: BLOCK* NameSystem.allocateBlock: /user/root/randtxt5/_temporary/_task_200811101024_0012_m_001726_0/part-01726. blk_1858805942071850133
081111 063451 31 INFO dfs.FSNamesystem: BLOCK* NameSystem.allocateBlock: /user/root/randtxt5/_temporary/_task_200811101024_0012_m_001554_0/part-01554. blk_5183831565578080242
081111 063514 35 INFO dfs.FSNamesystem: BLOCK* NameSystem.allocateBlock: /user/root/randtxt5/_temporary/_task_200811101024_0012_m_001709_0/part-01709. blk_3776895047834644694
081111 064106 33 INFO dfs.FSNamesystem: BLOCK* NameSystem.allocateBlock: /user/root/randtxt5/_temporary/_task_200811101024_0012_m_001709_0/part-01709. blk_6054235487623373096
081111 064501 34 INFO dfs.FSNamesystem: BLOCK* NameSystem.allocateBlock: /user/root/randtxt5/_temporary/_task_200811101024_0012_m_001635_0/part-01635. blk_9034993982993401678
---
len=127
081109 232923 3792 INFO dfs.DataNode$PacketResponder: Received block blk_7929144620252342335 of size 67108864 from /10.251.31.5
081109 235903 4454 INFO dfs.DataNode$PacketResponder: Received block blk_-71429470616906355 of size 67108864 from /10.250.19.16
081110 020140 6146 INFO dfs.DataNode$PacketResponder: Received block blk_4029732570544915384 of size 67108864 from /10.251.35.1
081110 024834 6371 INFO dfs.DataNode$DataXceiver: 10.251.126.227:50010 Served block blk_-8306714721294235181 to /10.251.126.227
081110 133823 11970 INFO dfs.DataNode$DataXceiver: 10.251.203.149:50010 Served block blk_-1432303681669932458 to /10.250.10.176
081110 173556 13687 INFO dfs.DataNode$DataXceiver: 10.251.194.147:50010 Served block blk_7703498406755483188 to /10.251.111.209
081110 232739 16715 INFO dfs.DataNode$DataXceiver: 10.251.123.99:50010 Served block blk_-7990763409688650846 to /10.251.197.161
081111 020752 17598 INFO dfs.DataNode$DataXceiver: 10.251.125.237:50010 Served block blk_-309134958179110212 to /10.251.125.237
---
len=163
081111 075212 30 INFO dfs.FSNamesystem: BLOCK* NameSystem.addStoredBlock: blockMap updated: 10.251.111.228:50010 is added to blk_-1237539644269634790 size 67108864
081111 075933 27 INFO dfs.FSNamesystem: BLOCK* NameSystem.addStoredBlock: blockMap updated: 10.251.194.102:50010 is added to blk_-7522572236891389139 size 67108864
081111 080309 32 INFO dfs.FSNamesystem: BLOCK* NameSystem.addStoredBlock: blockMap updated: 10.251.202.209:50010 is added to blk_-6224982681533811277 size 67108864
081111 080329 30 INFO dfs.FSNamesystem: BLOCK* NameSystem.addStoredBlock: blockMap updated: 10.251.107.196:50010 is added to blk_-2843780069100181052 size 67108864
081111 081534 34 INFO dfs.FSNamesystem: BLOCK* NameSystem.addStoredBlock: blockMap updated: 10.251.110.160:50010 is added to blk_-2852294661215451806 size 67108864
081111 090207 27 INFO dfs.FSNamesystem: BLOCK* NameSystem.addStoredBlock: blockMap updated: 10.251.197.161:50010 is added to blk_-3724350946705225881 size 67108864
081111 090816 31 INFO dfs.FSNamesystem: BLOCK* NameSystem.addStoredBlock: blockMap updated: 10.251.107.196:50010 is added to blk_-6308508598639278892 size 67108864
081111 095733 32 INFO dfs.FSNamesystem: BLOCK* NameSystem.addStoredBlock: blockMap updated: 10.251.111.228:50010 is added to blk_-1305222006484630743 size 67108864
---
len=116
081110 010815 5133 INFO dfs.DataNode$PacketResponder: PacketResponder 0 for block blk_397848436489409658 terminating
081110 012005 5368 INFO dfs.DataNode$PacketResponder: PacketResponder 1 for block blk_-26568864070436835 terminating
081110 013542 5646 INFO dfs.DataNode$PacketResponder: PacketResponder 0 for block blk_755689327380778318 terminating
081110 014847 5846 INFO dfs.DataNode$PacketResponder: PacketResponder 1 for block blk_703046261120042821 terminating
081110 020249 6148 INFO dfs.DataNode$PacketResponder: PacketResponder 0 for block blk_679168189072909208 terminating
081110 104407 9110 INFO dfs.DataNode$PacketResponder: PacketResponder 2 for block blk_859668537217019080 terminating
081110 105203 9267 INFO dfs.DataNode$PacketResponder: PacketResponder 0 for block blk_391813102554451063 terminating
081111 091837 24935 INFO dfs.DataNode$PacketResponder: PacketResponder 0 for block blk_34905976850091068 terminating
---
len=93
081110 112155 13 INFO dfs.DataBlockScanner: Verification succeeded for blk_774612454978154966
---
len=140
081111 023250 19 INFO dfs.FSDataset: Deleting block blk_797263375273454863 file /mnt/hadoop/dfs/data/current/subdir16/blk_797263375273454863
081111 024901 18086 INFO dfs.DataNode$DataXceiver: Receiving block blk_-11867600358649678 src: /10.251.75.79:46421 dest: /10.251.75.79:50010
081111 025732 18087 INFO dfs.DataNode$DataXceiver: Receiving block blk_-3752135158991310104 src: /10.251.70.5:44375 dest: /10.251.70.5:50010
081111 042625 19958 INFO dfs.DataNode$DataXceiver: Receiving block blk_-7350482598011027441 src: /10.250.7.96:41476 dest: /10.250.7.96:50010
081111 044704 19 INFO dfs.FSDataset: Deleting block blk_449049393237281194 file /mnt/hadoop/dfs/data/current/subdir18/blk_449049393237281194
081111 044716 19 INFO dfs.FSDataset: Deleting block blk_352185875883785141 file /mnt/hadoop/dfs/data/current/subdir44/blk_352185875883785141
081111 075747 23844 INFO dfs.DataNode$DataXceiver: Receiving block blk_706826531153199550 src: /10.250.5.161:58254 dest: /10.250.5.161:50010
081111 093316 25596 INFO dfs.DataNode$DataXceiver: Receiving block blk_-4655280636272058732 src: /10.251.26.8:48892 dest: /10.251.26.8:50010
---
len=117
081111 073403 23490 INFO dfs.DataNode$PacketResponder: PacketResponder 0 for block blk_-85872290979354091 terminating
081111 075114 23523 INFO dfs.DataNode$PacketResponder: PacketResponder 1 for block blk_703049809255765647 terminating
081111 075537 23945 INFO dfs.DataNode$PacketResponder: PacketResponder 0 for block blk_283922378823540530 terminating
081111 084003 24758 INFO dfs.DataNode$PacketResponder: PacketResponder 0 for block blk_703387617548630438 terminating
081111 084423 24772 INFO dfs.DataNode$PacketResponder: PacketResponder 2 for block blk_215466486430758887 terminating
081111 093913 25312 INFO dfs.DataNode$PacketResponder: PacketResponder 2 for block blk_412956398445037066 terminating
081111 095309 26010 INFO dfs.DataNode$PacketResponder: PacketResponder 0 for block blk_406835586147450451 terminating
081111 101115 26281 INFO dfs.DataNode$PacketResponder: PacketResponder 0 for block blk_712730845180531820 terminating
---
